target datalayout = "e-m:e-p270:32:32-p271:32:32-p272:64:64-i64:64-i128:128-f80:128-n8:16:32:64-S128"
target triple = "x86_64-pc-linux-gnu"

%"class.metaspace::AbstractCounter" = type { i32 }
%"class.metaspace::VirtualSpaceList" = type { ptr, ptr, ptr, %"class.metaspace::AbstractCounter", i8, ptr, %"class.metaspace::AbstractCounter.1", %"class.metaspace::AbstractCounter.1" }
%"class.metaspace::AbstractCounter.1" = type { i64 }

@UseCompressedClassPointers = external global i8, align 1
@.str.41 = private unnamed_addr constant [21 x i8] c"  Non-class space:  \00", align 1
@.str.42 = private unnamed_addr constant [12 x i8] c" reserved, \00", align 1
@.str.43 = private unnamed_addr constant [13 x i8] c" committed, \00", align 1
@.str.44 = private unnamed_addr constant [11 x i8] c" %d nodes.\00", align 1
@.str.45 = private unnamed_addr constant [21 x i8] c"      Class space:  \00", align 1
@.str.46 = private unnamed_addr constant [21 x i8] c"             Both:  \00", align 1
@.str.47 = private unnamed_addr constant [13 x i8] c" committed. \00", align 1

; Function Attrs: mustprogress nounwind uwtable
define linkonce_odr hidden noundef i32 @_ZNK9metaspace15AbstractCounterIjE3getEv(ptr noundef nonnull align 4 dereferenceable(4) %0) #1 comdat align 2 {
  %2 = alloca ptr, align 8
  store ptr %0, ptr %2, align 8
  %3 = load ptr, ptr %2, align 8
  %4 = getelementptr inbounds %"class.metaspace::AbstractCounter", ptr %3, i32 0, i32 0
  %5 = load i32, ptr %4, align 4
  ret i32 %5
}

; Function Attrs: mustprogress nounwind uwtable
define linkonce_odr hidden noundef zeroext i1 @_ZN9Metaspace17using_class_spaceEv() #1 comdat align 2 {
  %1 = load i8, ptr @UseCompressedClassPointers, align 1
  %2 = trunc i8 %1 to i1
  ret i1 %2
}

; Function Attrs: mustprogress nounwind uwtable
define linkonce_odr hidden noundef i32 @_ZNK9metaspace16VirtualSpaceList9num_nodesEv(ptr noundef nonnull align 8 dereferenceable(56) %0) #1 comdat align 2 {
  %2 = alloca ptr, align 8
  store ptr %0, ptr %2, align 8
  %3 = load ptr, ptr %2, align 8
  %4 = getelementptr inbounds %"class.metaspace::VirtualSpaceList", ptr %3, i32 0, i32 3
  %5 = call noundef i32 @_ZNK9metaspace15AbstractCounterIjE3getEv(ptr noundef nonnull align 4 dereferenceable(4) %4)
  ret i32 %5
}

; Function Attrs: mustprogress nounwind uwtable
define internal void @_ZN9metaspaceL8print_vsEP12outputStreamm(ptr noundef %0, i64 noundef %1) #1 {
  %3 = alloca ptr, align 8
  %4 = alloca i64, align 8
  %5 = alloca i64, align 8
  %6 = alloca i64, align 8
  %7 = alloca i32, align 4
  %8 = alloca i64, align 8
  %9 = alloca i64, align 8
  %10 = alloca i32, align 4
  store ptr %0, ptr %3, align 8
  store i64 %1, ptr %4, align 8
  %11 = call noundef i64 @_ZN9metaspace15RunningCounters23reserved_words_nonclassEv()
  store i64 %11, ptr %5, align 8
  %12 = call noundef i64 @_ZN9metaspace15RunningCounters24committed_words_nonclassEv()
  store i64 %12, ptr %6, align 8
  %13 = call noundef ptr @_ZN9metaspace16VirtualSpaceList15vslist_nonclassEv()
  %14 = call noundef i32 @_ZNK9metaspace16VirtualSpaceList9num_nodesEv(ptr noundef nonnull align 8 dereferenceable(56) %13)
  store i32 %14, ptr %7, align 4
  %15 = call noundef zeroext i1 @_ZN9Metaspace17using_class_spaceEv()
  br i1 %15, label %16, label %64

16:                                               ; preds = %2
  %17 = call noundef i64 @_ZN9metaspace15RunningCounters20reserved_words_classEv()
  store i64 %17, ptr %8, align 8
  %18 = call noundef i64 @_ZN9metaspace15RunningCounters21committed_words_classEv()
  store i64 %18, ptr %9, align 8
  %19 = call noundef ptr @_ZN9metaspace16VirtualSpaceList12vslist_classEv()
  %20 = call noundef i32 @_ZNK9metaspace16VirtualSpaceList9num_nodesEv(ptr noundef nonnull align 8 dereferenceable(56) %19)
  store i32 %20, ptr %10, align 4
  %21 = load ptr, ptr %3, align 8
  call void (ptr, ptr, ...) @_ZN12outputStream5printEPKcz(ptr noundef nonnull align 8 dereferenceable(56) %21, ptr noundef @.str.41)
  %22 = load ptr, ptr %3, align 8
  %23 = load i64, ptr %5, align 8
  %24 = load i64, ptr %4, align 8
  call void @_ZN9metaspace18print_scaled_wordsEP12outputStreammmi(ptr noundef %22, i64 noundef %23, i64 noundef %24, i32 noundef 7)
  %25 = load ptr, ptr %3, align 8
  call void (ptr, ptr, ...) @_ZN12outputStream5printEPKcz(ptr noundef nonnull align 8 dereferenceable(56) %25, ptr noundef @.str.42)
  %26 = load ptr, ptr %3, align 8
  %27 = load i64, ptr %6, align 8
  %28 = load i64, ptr %5, align 8
  %29 = load i64, ptr %4, align 8
  call void @_ZN9metaspace33print_scaled_words_and_percentageEP12outputStreammmmi(ptr noundef %26, i64 noundef %27, i64 noundef %28, i64 noundef %29, i32 noundef 7)
  %30 = load ptr, ptr %3, align 8
  call void (ptr, ptr, ...) @_ZN12outputStream5printEPKcz(ptr noundef nonnull align 8 dereferenceable(56) %30, ptr noundef @.str.43)
  %31 = load ptr, ptr %3, align 8
  %32 = load i32, ptr %7, align 4
  call void (ptr, ptr, ...) @_ZN12outputStream5printEPKcz(ptr noundef nonnull align 8 dereferenceable(56) %31, ptr noundef @.str.44, i32 noundef %32)
  %33 = load ptr, ptr %3, align 8
  call void @_ZN12outputStream2crEv(ptr noundef nonnull align 8 dereferenceable(56) %33)
  %34 = load ptr, ptr %3, align 8
  call void (ptr, ptr, ...) @_ZN12outputStream5printEPKcz(ptr noundef nonnull align 8 dereferenceable(56) %34, ptr noundef @.str.45)
  %35 = load ptr, ptr %3, align 8
  %36 = load i64, ptr %8, align 8
  %37 = load i64, ptr %4, align 8
  call void @_ZN9metaspace18print_scaled_wordsEP12outputStreammmi(ptr noundef %35, i64 noundef %36, i64 noundef %37, i32 noundef 7)
  %38 = load ptr, ptr %3, align 8
  call void (ptr, ptr, ...) @_ZN12outputStream5printEPKcz(ptr noundef nonnull align 8 dereferenceable(56) %38, ptr noundef @.str.42)
  %39 = load ptr, ptr %3, align 8
  %40 = load i64, ptr %9, align 8
  %41 = load i64, ptr %8, align 8
  %42 = load i64, ptr %4, align 8
  call void @_ZN9metaspace33print_scaled_words_and_percentageEP12outputStreammmmi(ptr noundef %39, i64 noundef %40, i64 noundef %41, i64 noundef %42, i32 noundef 7)
  %43 = load ptr, ptr %3, align 8
  call void (ptr, ptr, ...) @_ZN12outputStream5printEPKcz(ptr noundef nonnull align 8 dereferenceable(56) %43, ptr noundef @.str.43)
  %44 = load ptr, ptr %3, align 8
  %45 = load i32, ptr %10, align 4
  call void (ptr, ptr, ...) @_ZN12outputStream5printEPKcz(ptr noundef nonnull align 8 dereferenceable(56) %44, ptr noundef @.str.44, i32 noundef %45)
  %46 = load ptr, ptr %3, align 8
  call void @_ZN12outputStream2crEv(ptr noundef nonnull align 8 dereferenceable(56) %46)
  %47 = load ptr, ptr %3, align 8
  call void (ptr, ptr, ...) @_ZN12outputStream5printEPKcz(ptr noundef nonnull align 8 dereferenceable(56) %47, ptr noundef @.str.46)
  %48 = load ptr, ptr %3, align 8
  %49 = load i64, ptr %8, align 8
  %50 = load i64, ptr %5, align 8
  %51 = add i64 %49, %50
  %52 = load i64, ptr %4, align 8
  call void @_ZN9metaspace18print_scaled_wordsEP12outputStreammmi(ptr noundef %48, i64 noundef %51, i64 noundef %52, i32 noundef 7)
  %53 = load ptr, ptr %3, align 8
  call void (ptr, ptr, ...) @_ZN12outputStream5printEPKcz(ptr noundef nonnull align 8 dereferenceable(56) %53, ptr noundef @.str.42)
  %54 = load ptr, ptr %3, align 8
  %55 = load i64, ptr %9, align 8
  %56 = load i64, ptr %6, align 8
  %57 = add i64 %55, %56
  %58 = load i64, ptr %8, align 8
  %59 = load i64, ptr %5, align 8
  %60 = add i64 %58, %59
  %61 = load i64, ptr %4, align 8
  call void @_ZN9metaspace33print_scaled_words_and_percentageEP12outputStreammmmi(ptr noundef %54, i64 noundef %57, i64 noundef %60, i64 noundef %61, i32 noundef 7)
  %62 = load ptr, ptr %3, align 8
  call void (ptr, ptr, ...) @_ZN12outputStream5printEPKcz(ptr noundef nonnull align 8 dereferenceable(56) %62, ptr noundef @.str.47)
  %63 = load ptr, ptr %3, align 8
  call void @_ZN12outputStream2crEv(ptr noundef nonnull align 8 dereferenceable(56) %63)
  br label %77

64:                                               ; preds = %2
  %65 = load ptr, ptr %3, align 8
  %66 = load i64, ptr %5, align 8
  %67 = load i64, ptr %4, align 8
  call void @_ZN9metaspace18print_scaled_wordsEP12outputStreammmi(ptr noundef %65, i64 noundef %66, i64 noundef %67, i32 noundef 7)
  %68 = load ptr, ptr %3, align 8
  call void (ptr, ptr, ...) @_ZN12outputStream5printEPKcz(ptr noundef nonnull align 8 dereferenceable(56) %68, ptr noundef @.str.42)
  %69 = load ptr, ptr %3, align 8
  %70 = load i64, ptr %6, align 8
  %71 = load i64, ptr %5, align 8
  %72 = load i64, ptr %4, align 8
  call void @_ZN9metaspace33print_scaled_words_and_percentageEP12outputStreammmmi(ptr noundef %69, i64 noundef %70, i64 noundef %71, i64 noundef %72, i32 noundef 7)
  %73 = load ptr, ptr %3, align 8
  call void (ptr, ptr, ...) @_ZN12outputStream5printEPKcz(ptr noundef nonnull align 8 dereferenceable(56) %73, ptr noundef @.str.43)
  %74 = load ptr, ptr %3, align 8
  %75 = load i32, ptr %7, align 4
  call void (ptr, ptr, ...) @_ZN12outputStream5printEPKcz(ptr noundef nonnull align 8 dereferenceable(56) %74, ptr noundef @.str.44, i32 noundef %75)
  %76 = load ptr, ptr %3, align 8
  call void @_ZN12outputStream2crEv(ptr noundef nonnull align 8 dereferenceable(56) %76)
  br label %77

77:                                               ; preds = %64, %16
  ret void
}