; Function Attrs: mustprogress nounwind uwtable
define internal fastcc void @_ZN9metaspaceL8print_vsEP12outputStreamm(ptr noundef %0, i64 noundef %1) unnamed_addr #0 {
  %3 = tail call noundef i64 @_ZN9metaspace15RunningCounters23reserved_words_nonclassEv() #3
  %4 = tail call noundef i64 @_ZN9metaspace15RunningCounters24committed_words_nonclassEv() #3
  %5 = tail call noundef ptr @_ZN9metaspace16VirtualSpaceList15vslist_nonclassEv() #3
  %6 = getelementptr inbounds i8, ptr %5, i64 24
  %7 = load i32, ptr %6, align 4
  %8 = load i8, ptr @UseCompressedClassPointers, align 1
  %9 = trunc i8 %8 to i1
  br i1 %9, label %10, label %18

10:                                               ; preds = %2
  %11 = tail call noundef i64 @_ZN9metaspace15RunningCounters20reserved_words_classEv() #3
  %12 = tail call noundef i64 @_ZN9metaspace15RunningCounters21committed_words_classEv() #3
  %13 = tail call noundef ptr @_ZN9metaspace16VirtualSpaceList12vslist_classEv() #3
  %14 = getelementptr inbounds i8, ptr %13, i64 24
  %15 = load i32, ptr %14, align 4
  tail call void (ptr, ptr, ...) @_ZN12outputStream5printEPKcz(ptr noundef nonnull align 8 dereferenceable(56) %0, ptr noundef nonnull @.str.41) #3
  tail call void @_ZN9metaspace18print_scaled_wordsEP12outputStreammmi(ptr noundef nonnull %0, i64 noundef %3, i64 noundef %1, i32 noundef 7) #3
  tail call void (ptr, ptr, ...) @_ZN12outputStream5printEPKcz(ptr noundef nonnull align 8 dereferenceable(56) %0, ptr noundef nonnull @.str.42) #3
  tail call void @_ZN9metaspace33print_scaled_words_and_percentageEP12outputStreammmmi(ptr noundef nonnull %0, i64 noundef %4, i64 noundef %3, i64 noundef %1, i32 noundef 7) #3
  tail call void (ptr, ptr, ...) @_ZN12outputStream5printEPKcz(ptr noundef nonnull align 8 dereferenceable(56) %0, ptr noundef nonnull @.str.43) #3
  tail call void (ptr, ptr, ...) @_ZN12outputStream5printEPKcz(ptr noundef nonnull align 8 dereferenceable(56) %0, ptr noundef nonnull @.str.44, i32 noundef %7) #3
  tail call void @_ZN12outputStream2crEv(ptr noundef nonnull align 8 dereferenceable(56) %0) #3
  tail call void (ptr, ptr, ...) @_ZN12outputStream5printEPKcz(ptr noundef nonnull align 8 dereferenceable(56) %0, ptr noundef nonnull @.str.45) #3
  tail call void @_ZN9metaspace18print_scaled_wordsEP12outputStreammmi(ptr noundef nonnull %0, i64 noundef %11, i64 noundef %1, i32 noundef 7) #3
  tail call void (ptr, ptr, ...) @_ZN12outputStream5printEPKcz(ptr noundef nonnull align 8 dereferenceable(56) %0, ptr noundef nonnull @.str.42) #3
  tail call void @_ZN9metaspace33print_scaled_words_and_percentageEP12outputStreammmmi(ptr noundef nonnull %0, i64 noundef %12, i64 noundef %11, i64 noundef %1, i32 noundef 7) #3
  tail call void (ptr, ptr, ...) @_ZN12outputStream5printEPKcz(ptr noundef nonnull align 8 dereferenceable(56) %0, ptr noundef nonnull @.str.43) #3
  tail call void (ptr, ptr, ...) @_ZN12outputStream5printEPKcz(ptr noundef nonnull align 8 dereferenceable(56) %0, ptr noundef nonnull @.str.44, i32 noundef %15) #3
  tail call void @_ZN12outputStream2crEv(ptr noundef nonnull align 8 dereferenceable(56) %0) #3
  tail call void (ptr, ptr, ...) @_ZN12outputStream5printEPKcz(ptr noundef nonnull align 8 dereferenceable(56) %0, ptr noundef nonnull @.str.46) #3
  %16 = add i64 %11, %3
  tail call void @_ZN9metaspace18print_scaled_wordsEP12outputStreammmi(ptr noundef nonnull %0, i64 noundef %16, i64 noundef %1, i32 noundef 7) #3
  tail call void (ptr, ptr, ...) @_ZN12outputStream5printEPKcz(ptr noundef nonnull align 8 dereferenceable(56) %0, ptr noundef nonnull @.str.42) #3
  %17 = add i64 %12, %4
  tail call void @_ZN9metaspace33print_scaled_words_and_percentageEP12outputStreammmmi(ptr noundef nonnull %0, i64 noundef %17, i64 noundef %16, i64 noundef %1, i32 noundef 7) #3
  tail call void (ptr, ptr, ...) @_ZN12outputStream5printEPKcz(ptr noundef nonnull align 8 dereferenceable(56) %0, ptr noundef nonnull @.str.47) #3
  br label %19

18:                                               ; preds = %2
  tail call void @_ZN9metaspace18print_scaled_wordsEP12outputStreammmi(ptr noundef %0, i64 noundef %3, i64 noundef %1, i32 noundef 7) #3
  tail call void (ptr, ptr, ...) @_ZN12outputStream5printEPKcz(ptr noundef nonnull align 8 dereferenceable(56) %0, ptr noundef nonnull @.str.42) #3
  tail call void @_ZN9metaspace33print_scaled_words_and_percentageEP12outputStreammmmi(ptr noundef %0, i64 noundef %4, i64 noundef %3, i64 noundef %1, i32 noundef 7) #3
  tail call void (ptr, ptr, ...) @_ZN12outputStream5printEPKcz(ptr noundef nonnull align 8 dereferenceable(56) %0, ptr noundef nonnull @.str.43) #3
  tail call void (ptr, ptr, ...) @_ZN12outputStream5printEPKcz(ptr noundef nonnull align 8 dereferenceable(56) %0, ptr noundef nonnull @.str.44, i32 noundef %7) #3
  br label %19

19:                                               ; preds = %18, %10
  tail call void @_ZN12outputStream2crEv(ptr noundef nonnull align 8 dereferenceable(56) %0) #3
  ret void
}